   1               		.file	"num2str.c"
   2               	__SP_H__ = 0x3e
   3               	__SP_L__ = 0x3d
   4               	__SREG__ = 0x3f
   5               	__tmp_reg__ = 0
   6               	__zero_reg__ = 1
   7               		.text
   8               	.Ltext0:
   9               		.cfi_sections	.debug_frame
  10               		.section	.rodata
  11               	.LC0:
  12 0000 1027      		.word	10000
  13 0002 E803      		.word	1000
  14 0004 6400      		.word	100
  15 0006 0A00      		.word	10
  16 0008 0100      		.word	1
  17               		.text
  18               	.global	usint2decascii
  20               	usint2decascii:
  21               	.LVL0:
  22               	.LFB0:
  23               		.file 1 "libs/tinusaur-ssd1306xled/ssd1306xled/num2str.c"
   1:libs/tinusaur-ssd1306xled/ssd1306xled/num2str.c **** /**
   2:libs/tinusaur-ssd1306xled/ssd1306xled/num2str.c ****  * NUM2STR - Functions to handle the conversion of numeric vales to strings.
   3:libs/tinusaur-ssd1306xled/ssd1306xled/num2str.c ****  *
   4:libs/tinusaur-ssd1306xled/ssd1306xled/num2str.c ****  * @created	2014-12-18
   5:libs/tinusaur-ssd1306xled/ssd1306xled/num2str.c ****  * @author	Neven Boyanov
   6:libs/tinusaur-ssd1306xled/ssd1306xled/num2str.c ****  * @version	2016-04-17 (last modified)
   7:libs/tinusaur-ssd1306xled/ssd1306xled/num2str.c ****  *
   8:libs/tinusaur-ssd1306xled/ssd1306xled/num2str.c ****  * This is part of the Tinusaur/TinyAVRLib project.
   9:libs/tinusaur-ssd1306xled/ssd1306xled/num2str.c ****  *
  10:libs/tinusaur-ssd1306xled/ssd1306xled/num2str.c ****  * Copyright (c) 2016 Neven Boyanov, Tinusaur Team. All Rights Reserved.
  11:libs/tinusaur-ssd1306xled/ssd1306xled/num2str.c ****  * Distributed as open source software under MIT License, see LICENSE.txt file.
  12:libs/tinusaur-ssd1306xled/ssd1306xled/num2str.c ****  * Please, as a favor, retain the link http://tinusaur.org to The Tinusaur Project.
  13:libs/tinusaur-ssd1306xled/ssd1306xled/num2str.c ****  *
  14:libs/tinusaur-ssd1306xled/ssd1306xled/num2str.c ****  * Source code available at: https://bitbucket.org/tinusaur/tinyavrlib
  15:libs/tinusaur-ssd1306xled/ssd1306xled/num2str.c ****  *
  16:libs/tinusaur-ssd1306xled/ssd1306xled/num2str.c ****  */
  17:libs/tinusaur-ssd1306xled/ssd1306xled/num2str.c **** 
  18:libs/tinusaur-ssd1306xled/ssd1306xled/num2str.c **** // ============================================================================
  19:libs/tinusaur-ssd1306xled/ssd1306xled/num2str.c **** 
  20:libs/tinusaur-ssd1306xled/ssd1306xled/num2str.c **** #include "num2str.h"
  21:libs/tinusaur-ssd1306xled/ssd1306xled/num2str.c **** 
  22:libs/tinusaur-ssd1306xled/ssd1306xled/num2str.c **** // ----------------------------------------------------------------------------
  23:libs/tinusaur-ssd1306xled/ssd1306xled/num2str.c **** 
  24:libs/tinusaur-ssd1306xled/ssd1306xled/num2str.c **** // NOTE: This implementation is borrowed from the LCDDDD library.
  25:libs/tinusaur-ssd1306xled/ssd1306xled/num2str.c **** // Original source code at: https://bitbucket.org/boyanov/avr/src/default/lcdddd/src/lcdddd/lcdddd.
  26:libs/tinusaur-ssd1306xled/ssd1306xled/num2str.c **** 
  27:libs/tinusaur-ssd1306xled/ssd1306xled/num2str.c **** uint8_t usint2decascii(uint16_t num, char *buffer)
  28:libs/tinusaur-ssd1306xled/ssd1306xled/num2str.c **** {
  24               		.loc 1 28 1 view -0
  25               		.cfi_startproc
  26               		.loc 1 28 1 is_stmt 0 view .LVU1
  27 0000 CF93      		push r28
  28               	.LCFI0:
  29               		.cfi_def_cfa_offset 3
  30               		.cfi_offset 28, -2
  31 0002 DF93      		push r29
  32               	.LCFI1:
  33               		.cfi_def_cfa_offset 4
  34               		.cfi_offset 29, -3
  35 0004 CDB7      		in r28,__SP_L__
  36 0006 DEB7      		in r29,__SP_H__
  37               	.LCFI2:
  38               		.cfi_def_cfa_register 28
  39 0008 2A97      		sbiw r28,10
  40               	.LCFI3:
  41               		.cfi_def_cfa_offset 14
  42 000a 0FB6      		in __tmp_reg__,__SREG__
  43 000c F894      		cli
  44 000e DEBF      		out __SP_H__,r29
  45 0010 0FBE      		out __SREG__,__tmp_reg__
  46 0012 CDBF      		out __SP_L__,r28
  47               	/* prologue: function */
  48               	/* frame size = 10 */
  49               	/* stack size = 12 */
  50               	.L__stack_usage = 12
  51 0014 AC01      		movw r20,r24
  29:libs/tinusaur-ssd1306xled/ssd1306xled/num2str.c **** 	const unsigned short powers[] = { 10000u, 1000u, 100u, 10u, 1u }; // The "const unsigned short" co
  52               		.loc 1 29 2 is_stmt 1 view .LVU2
  53               		.loc 1 29 23 is_stmt 0 view .LVU3
  54 0016 8AE0      		ldi r24,lo8(10)
  55               	.LVL1:
  56               		.loc 1 29 23 view .LVU4
  57 0018 E0E0      		ldi r30,lo8(.LC0)
  58 001a F0E0      		ldi r31,hi8(.LC0)
  59 001c DE01      		movw r26,r28
  60 001e 1196      		adiw r26,1
  61               		0:
  62 0020 0190      		ld r0,Z+
  63 0022 0D92      		st X+,r0
  64 0024 8A95      		dec r24
  65 0026 01F4      		brne 0b
  30:libs/tinusaur-ssd1306xled/ssd1306xled/num2str.c **** 	char digit; // "digit" is stored in a char array, so it should be of type char.
  66               		.loc 1 30 2 is_stmt 1 view .LVU5
  31:libs/tinusaur-ssd1306xled/ssd1306xled/num2str.c **** 	uint8_t digits = USINT2DECASCII_MAX_DIGITS - 1;
  67               		.loc 1 31 2 view .LVU6
  68               	.LVL2:
  32:libs/tinusaur-ssd1306xled/ssd1306xled/num2str.c **** 	for (uint8_t pos = 0; pos < 5; pos++) // "pos" is index in array, so should be of type int.
  69               		.loc 1 32 2 view .LVU7
  70               	.LBB2:
  71               		.loc 1 32 7 view .LVU8
  72               		.loc 1 32 7 is_stmt 0 view .LVU9
  73 0028 FE01      		movw r30,r28
  74 002a 3196      		adiw r30,1
  75 002c DB01      		movw r26,r22
  76               		.loc 1 32 15 view .LVU10
  77 002e 20E0      		ldi r18,0
  78               	.LBE2:
  31:libs/tinusaur-ssd1306xled/ssd1306xled/num2str.c **** 	uint8_t digits = USINT2DECASCII_MAX_DIGITS - 1;
  79               		.loc 1 31 10 view .LVU11
  80 0030 84E0      		ldi r24,lo8(4)
  81               	.LVL3:
  82               	.L2:
  83               	.LBB3:
  33:libs/tinusaur-ssd1306xled/ssd1306xled/num2str.c **** 	{
  34:libs/tinusaur-ssd1306xled/ssd1306xled/num2str.c **** 		digit = 0;
  35:libs/tinusaur-ssd1306xled/ssd1306xled/num2str.c **** 		while (num >= powers[pos])
  84               		.loc 1 35 23 view .LVU12
  85 0032 6191      		ld r22,Z+
  86 0034 7191      		ld r23,Z+
  34:libs/tinusaur-ssd1306xled/ssd1306xled/num2str.c **** 		while (num >= powers[pos])
  87               		.loc 1 34 9 view .LVU13
  88 0036 90E0      		ldi r25,0
  89 0038 00C0      		rjmp .L6
  90               	.LVL4:
  91               	.L3:
  36:libs/tinusaur-ssd1306xled/ssd1306xled/num2str.c **** 		{
  37:libs/tinusaur-ssd1306xled/ssd1306xled/num2str.c **** 			digit++;
  92               		.loc 1 37 4 is_stmt 1 view .LVU14
  93               		.loc 1 37 9 is_stmt 0 view .LVU15
  94 003a 9F5F      		subi r25,lo8(-(1))
  95               	.LVL5:
  38:libs/tinusaur-ssd1306xled/ssd1306xled/num2str.c **** 			num -= powers[pos];
  96               		.loc 1 38 4 is_stmt 1 view .LVU16
  97               		.loc 1 38 8 is_stmt 0 view .LVU17
  98 003c 461B      		sub r20,r22
  99 003e 570B      		sbc r21,r23
 100               	.LVL6:
 101               	.L6:
  35:libs/tinusaur-ssd1306xled/ssd1306xled/num2str.c **** 		{
 102               		.loc 1 35 9 view .LVU18
 103 0040 4617      		cp r20,r22
 104 0042 5707      		cpc r21,r23
 105 0044 00F4      		brsh .L3
  39:libs/tinusaur-ssd1306xled/ssd1306xled/num2str.c **** 		}
  40:libs/tinusaur-ssd1306xled/ssd1306xled/num2str.c **** 
  41:libs/tinusaur-ssd1306xled/ssd1306xled/num2str.c **** 		// ---- CHOOSE (1), (2) or (3) ----
  42:libs/tinusaur-ssd1306xled/ssd1306xled/num2str.c **** 
  43:libs/tinusaur-ssd1306xled/ssd1306xled/num2str.c **** 		// CHOICE (1) Fixed width, zero padded result.
  44:libs/tinusaur-ssd1306xled/ssd1306xled/num2str.c **** 		/*
  45:libs/tinusaur-ssd1306xled/ssd1306xled/num2str.c **** 		buffer[pos] = digit + '0';	// Convert to ASCII
  46:libs/tinusaur-ssd1306xled/ssd1306xled/num2str.c **** 		*/
  47:libs/tinusaur-ssd1306xled/ssd1306xled/num2str.c **** 
  48:libs/tinusaur-ssd1306xled/ssd1306xled/num2str.c **** 		// CHOICE (2) Fixed width, zero padded result, digits offset.
  49:libs/tinusaur-ssd1306xled/ssd1306xled/num2str.c **** 		/*
  50:libs/tinusaur-ssd1306xled/ssd1306xled/num2str.c **** 		buffer[pos] = digit + '0';	// Convert to ASCII
  51:libs/tinusaur-ssd1306xled/ssd1306xled/num2str.c **** 		// Note: Determines the offset of the first significant digit.
  52:libs/tinusaur-ssd1306xled/ssd1306xled/num2str.c **** 		if (digits == -1 && digit != 0) digits = pos;
  53:libs/tinusaur-ssd1306xled/ssd1306xled/num2str.c **** 		// Note: Could be used for variable width, not padded, left aligned result.
  54:libs/tinusaur-ssd1306xled/ssd1306xled/num2str.c **** 		*/
  55:libs/tinusaur-ssd1306xled/ssd1306xled/num2str.c **** 
  56:libs/tinusaur-ssd1306xled/ssd1306xled/num2str.c **** 		// CHOICE (3) Fixed width, space (or anything else) padded result, digits offset.
  57:libs/tinusaur-ssd1306xled/ssd1306xled/num2str.c **** 		// Note: Determines the offset of the first significant digit.
  58:libs/tinusaur-ssd1306xled/ssd1306xled/num2str.c **** 		// Note: Could be used for variable width, not padded, left aligned result.
  59:libs/tinusaur-ssd1306xled/ssd1306xled/num2str.c **** 		if (digits == USINT2DECASCII_MAX_DIGITS - 1)
 106               		.loc 1 59 3 is_stmt 1 view .LVU19
 107               		.loc 1 59 6 is_stmt 0 view .LVU20
 108 0046 8430      		cpi r24,lo8(4)
 109 0048 01F4      		brne .L4
  60:libs/tinusaur-ssd1306xled/ssd1306xled/num2str.c **** 		{
  61:libs/tinusaur-ssd1306xled/ssd1306xled/num2str.c **** 			if (digit == 0)
 110               		.loc 1 61 4 is_stmt 1 view .LVU21
 111               		.loc 1 61 7 is_stmt 0 view .LVU22
 112 004a 9111      		cpse r25,__zero_reg__
 113 004c 00C0      		rjmp .L8
  62:libs/tinusaur-ssd1306xled/ssd1306xled/num2str.c **** 			{
  63:libs/tinusaur-ssd1306xled/ssd1306xled/num2str.c **** 				if (pos < USINT2DECASCII_MAX_DIGITS - 1)	// Check position, so single "0" will be handled prope
 114               		.loc 1 63 5 is_stmt 1 view .LVU23
 115               		.loc 1 63 8 is_stmt 0 view .LVU24
 116 004e 2430      		cpi r18,lo8(4)
 117 0050 01F0      		breq .L8
  64:libs/tinusaur-ssd1306xled/ssd1306xled/num2str.c **** 					digit = -16;	// Use: "-16" for space (' '), "-3" for dash/minus ('-'), "0" for zero ('0'), etc
 118               		.loc 1 64 12 view .LVU25
 119 0052 90EF      		ldi r25,lo8(-16)
 120               	.LVL7:
 121               	.L4:
  65:libs/tinusaur-ssd1306xled/ssd1306xled/num2str.c **** 			}
  66:libs/tinusaur-ssd1306xled/ssd1306xled/num2str.c **** 			else
  67:libs/tinusaur-ssd1306xled/ssd1306xled/num2str.c **** 			{
  68:libs/tinusaur-ssd1306xled/ssd1306xled/num2str.c **** 				digits = pos;
  69:libs/tinusaur-ssd1306xled/ssd1306xled/num2str.c **** 			}
  70:libs/tinusaur-ssd1306xled/ssd1306xled/num2str.c **** 		}
  71:libs/tinusaur-ssd1306xled/ssd1306xled/num2str.c **** 		buffer[pos] = digit + '0';	// Convert to ASCII
 122               		.loc 1 71 3 is_stmt 1 discriminator 2 view .LVU26
 123               		.loc 1 71 23 is_stmt 0 discriminator 2 view .LVU27
 124 0054 905D      		subi r25,lo8(-(48))
 125               	.LVL8:
 126               		.loc 1 71 15 discriminator 2 view .LVU28
 127 0056 9D93      		st X+,r25
  32:libs/tinusaur-ssd1306xled/ssd1306xled/num2str.c **** 	{
 128               		.loc 1 32 36 discriminator 2 view .LVU29
 129 0058 2F5F      		subi r18,lo8(-(1))
 130               	.LVL9:
  32:libs/tinusaur-ssd1306xled/ssd1306xled/num2str.c **** 	{
 131               		.loc 1 32 2 discriminator 2 view .LVU30
 132 005a 2530      		cpi r18,lo8(5)
 133 005c 01F4      		brne .L2
 134               	/* epilogue start */
 135               	.LBE3:
  72:libs/tinusaur-ssd1306xled/ssd1306xled/num2str.c **** 
  73:libs/tinusaur-ssd1306xled/ssd1306xled/num2str.c **** 	}
  74:libs/tinusaur-ssd1306xled/ssd1306xled/num2str.c **** 
  75:libs/tinusaur-ssd1306xled/ssd1306xled/num2str.c **** 	// NOTE: The resulting ascii text should not be terminated with '\0' here.
  76:libs/tinusaur-ssd1306xled/ssd1306xled/num2str.c **** 	//       The provided buffer maybe part of a larger text in both directions.
  77:libs/tinusaur-ssd1306xled/ssd1306xled/num2str.c **** 
  78:libs/tinusaur-ssd1306xled/ssd1306xled/num2str.c **** 	return digits;
  79:libs/tinusaur-ssd1306xled/ssd1306xled/num2str.c **** }
 136               		.loc 1 79 1 view .LVU31
 137 005e 2A96      		adiw r28,10
 138 0060 0FB6      		in __tmp_reg__,__SREG__
 139 0062 F894      		cli
 140 0064 DEBF      		out __SP_H__,r29
 141 0066 0FBE      		out __SREG__,__tmp_reg__
 142 0068 CDBF      		out __SP_L__,r28
 143 006a DF91      		pop r29
 144 006c CF91      		pop r28
 145 006e 0895      		ret
 146               	.LVL10:
 147               	.L8:
 148               	.LBB4:
 149               		.loc 1 79 1 view .LVU32
 150 0070 822F      		mov r24,r18
 151               	.LVL11:
 152               		.loc 1 79 1 view .LVU33
 153 0072 00C0      		rjmp .L4
 154               	.LBE4:
 155               		.cfi_endproc
 156               	.LFE0:
 158               	.global	usint2binascii
 160               	usint2binascii:
 161               	.LVL12:
 162               	.LFB1:
  80:libs/tinusaur-ssd1306xled/ssd1306xled/num2str.c **** 
  81:libs/tinusaur-ssd1306xled/ssd1306xled/num2str.c **** // ----------------------------------------------------------------------------
  82:libs/tinusaur-ssd1306xled/ssd1306xled/num2str.c **** 
  83:libs/tinusaur-ssd1306xled/ssd1306xled/num2str.c **** // NOTE: The buffer should be always at least MAX_DIGITS in length - the function works with 16-bit
  84:libs/tinusaur-ssd1306xled/ssd1306xled/num2str.c **** 
  85:libs/tinusaur-ssd1306xled/ssd1306xled/num2str.c **** uint8_t usint2binascii(uint16_t num, char *buffer) {
 163               		.loc 1 85 52 is_stmt 1 view -0
 164               		.cfi_startproc
 165               	/* prologue: function */
 166               	/* frame size = 0 */
 167               	/* stack size = 0 */
 168               	.L__stack_usage = 0
 169               		.loc 1 85 52 is_stmt 0 view .LVU35
 170 0074 FC01      		movw r30,r24
  86:libs/tinusaur-ssd1306xled/ssd1306xled/num2str.c **** 	uint16_t power = 0x8000;	// This is the 1000 0000 0000 0000 binary number.
 171               		.loc 1 86 2 is_stmt 1 view .LVU36
 172               	.LVL13:
  87:libs/tinusaur-ssd1306xled/ssd1306xled/num2str.c **** 	char digit; // "digit" is stored in a char array, so it should be of type char.
 173               		.loc 1 87 2 view .LVU37
  88:libs/tinusaur-ssd1306xled/ssd1306xled/num2str.c **** 	uint8_t digits = USINT2BINASCII_MAX_DIGITS - 1;
 174               		.loc 1 88 2 view .LVU38
  89:libs/tinusaur-ssd1306xled/ssd1306xled/num2str.c **** 	for (uint8_t pos = 0; pos < USINT2BINASCII_MAX_DIGITS; pos++) { // "pos" is index in an array.
 175               		.loc 1 89 2 view .LVU39
 176               	.LBB5:
 177               		.loc 1 89 7 view .LVU40
 178               		.loc 1 89 15 is_stmt 0 view .LVU41
 179 0076 20E0      		ldi r18,0
 180               	.LBE5:
  88:libs/tinusaur-ssd1306xled/ssd1306xled/num2str.c **** 	uint8_t digits = USINT2BINASCII_MAX_DIGITS - 1;
 181               		.loc 1 88 10 view .LVU42
 182 0078 8FE0      		ldi r24,lo8(15)
 183               	.LVL14:
  86:libs/tinusaur-ssd1306xled/ssd1306xled/num2str.c **** 	char digit; // "digit" is stored in a char array, so it should be of type char.
 184               		.loc 1 86 11 view .LVU43
 185 007a 40E0      		ldi r20,0
 186 007c 50E8      		ldi r21,lo8(-128)
 187               	.LVL15:
 188               	.L11:
 189               	.LBB6:
  90:libs/tinusaur-ssd1306xled/ssd1306xled/num2str.c **** 		digit = 0;
 190               		.loc 1 90 3 is_stmt 1 view .LVU44
  91:libs/tinusaur-ssd1306xled/ssd1306xled/num2str.c **** 		if (num >= power) {
 191               		.loc 1 91 3 view .LVU45
  90:libs/tinusaur-ssd1306xled/ssd1306xled/num2str.c **** 		digit = 0;
 192               		.loc 1 90 9 is_stmt 0 view .LVU46
 193 007e 90E0      		ldi r25,0
 194               		.loc 1 91 6 view .LVU47
 195 0080 E417      		cp r30,r20
 196 0082 F507      		cpc r31,r21
 197 0084 00F0      		brlo .L10
  92:libs/tinusaur-ssd1306xled/ssd1306xled/num2str.c **** 			digit++;
 198               		.loc 1 92 4 is_stmt 1 view .LVU48
 199               	.LVL16:
  93:libs/tinusaur-ssd1306xled/ssd1306xled/num2str.c **** 			num -= power;
 200               		.loc 1 93 4 view .LVU49
 201               		.loc 1 93 8 is_stmt 0 view .LVU50
 202 0086 E41B      		sub r30,r20
 203 0088 F50B      		sbc r31,r21
 204               	.LVL17:
  94:libs/tinusaur-ssd1306xled/ssd1306xled/num2str.c **** 		}
  95:libs/tinusaur-ssd1306xled/ssd1306xled/num2str.c **** 		// Fixed width, space ('0', or anything else) padded result, digits offset.
  96:libs/tinusaur-ssd1306xled/ssd1306xled/num2str.c **** 		// Note: Determines the offset of the first significant digit.
  97:libs/tinusaur-ssd1306xled/ssd1306xled/num2str.c **** 		// Note: Could be used for variable width, not padded, left aligned result.
  98:libs/tinusaur-ssd1306xled/ssd1306xled/num2str.c **** 		if (digits == USINT2BINASCII_MAX_DIGITS - 1) {
 205               		.loc 1 98 3 is_stmt 1 view .LVU51
 206               		.loc 1 98 6 is_stmt 0 view .LVU52
 207 008a 8F30      		cpi r24,lo8(15)
 208 008c 01F0      		breq .L13
 209               	.LVL18:
 210               	.L15:
 211               		.loc 1 98 6 view .LVU53
 212 008e 91E0      		ldi r25,lo8(1)
 213               	.LVL19:
 214               	.L10:
  99:libs/tinusaur-ssd1306xled/ssd1306xled/num2str.c **** 			if (digit == 0) {
 100:libs/tinusaur-ssd1306xled/ssd1306xled/num2str.c **** 				if (pos < USINT2BINASCII_MAX_DIGITS - 1) // Check position, so single "0" will be handled prope
 101:libs/tinusaur-ssd1306xled/ssd1306xled/num2str.c **** 					digit = 0; // Use: "-16" for space (' '), "-3" for dash/minus ('-'), "0" for zero ('0'), etc.
 102:libs/tinusaur-ssd1306xled/ssd1306xled/num2str.c **** 			} else {
 103:libs/tinusaur-ssd1306xled/ssd1306xled/num2str.c **** 				digits = pos;
 104:libs/tinusaur-ssd1306xled/ssd1306xled/num2str.c **** 			}
 105:libs/tinusaur-ssd1306xled/ssd1306xled/num2str.c **** 		}
 106:libs/tinusaur-ssd1306xled/ssd1306xled/num2str.c **** 		buffer[pos] = digit + '0';	// Convert to ASCII
 215               		.loc 1 106 3 is_stmt 1 discriminator 2 view .LVU54
 216               		.loc 1 106 23 is_stmt 0 discriminator 2 view .LVU55
 217 0090 905D      		subi r25,lo8(-(48))
 218               	.LVL20:
 219               		.loc 1 106 15 discriminator 2 view .LVU56
 220 0092 DB01      		movw r26,r22
 221 0094 9D93      		st X+,r25
 222 0096 BD01      		movw r22,r26
 107:libs/tinusaur-ssd1306xled/ssd1306xled/num2str.c **** 		power = power >> 1;
 223               		.loc 1 107 3 is_stmt 1 discriminator 2 view .LVU57
 224               		.loc 1 107 9 is_stmt 0 discriminator 2 view .LVU58
 225 0098 5695      		lsr r21
 226 009a 4795      		ror r20
 227               	.LVL21:
  89:libs/tinusaur-ssd1306xled/ssd1306xled/num2str.c **** 		digit = 0;
 228               		.loc 1 89 60 discriminator 2 view .LVU59
 229 009c 2F5F      		subi r18,lo8(-(1))
 230               	.LVL22:
  89:libs/tinusaur-ssd1306xled/ssd1306xled/num2str.c **** 		digit = 0;
 231               		.loc 1 89 2 discriminator 2 view .LVU60
 232 009e 2031      		cpi r18,lo8(16)
 233 00a0 01F4      		brne .L11
 234               	/* epilogue start */
  89:libs/tinusaur-ssd1306xled/ssd1306xled/num2str.c **** 		digit = 0;
 235               		.loc 1 89 2 discriminator 2 view .LVU61
 236               	.LBE6:
 108:libs/tinusaur-ssd1306xled/ssd1306xled/num2str.c **** 	}
 109:libs/tinusaur-ssd1306xled/ssd1306xled/num2str.c **** 	// NOTE: The resulting ascii text should not be terminated with '\0' here.
 110:libs/tinusaur-ssd1306xled/ssd1306xled/num2str.c **** 	//       The provided buffer maybe part of a larger text in both directions.
 111:libs/tinusaur-ssd1306xled/ssd1306xled/num2str.c **** 	return digits;
 112:libs/tinusaur-ssd1306xled/ssd1306xled/num2str.c **** }
 237               		.loc 1 112 1 view .LVU62
 238 00a2 0895      		ret
 239               	.LVL23:
 240               	.L13:
 241               	.LBB7:
  98:libs/tinusaur-ssd1306xled/ssd1306xled/num2str.c **** 			if (digit == 0) {
 242               		.loc 1 98 6 view .LVU63
 243 00a4 822F      		mov r24,r18
 244               	.LVL24:
  98:libs/tinusaur-ssd1306xled/ssd1306xled/num2str.c **** 			if (digit == 0) {
 245               		.loc 1 98 6 view .LVU64
 246 00a6 00C0      		rjmp .L15
 247               	.LBE7:
 248               		.cfi_endproc
 249               	.LFE1:
 251               	.Letext0:
 252               		.file 2 "/usr/local/Cellar/avr-gcc/8.1.0/avr/include/stdint.h"